; Function Attrs: nounwind sspstrong uwtable
define internal fastcc i64 @get_id_serial_entry(i32 noundef %0, i32 noundef range(i32 0, 2) %1) unnamed_addr #0 {
  %3 = alloca i32, align 4
  call void @llvm.lifetime.start.p0(i64 4, ptr nonnull %3) #19
  %4 = load ptr, ptr @ruby_single_main_ractor, align 8, !tbaa !24
  %.not.i.i = icmp eq ptr %4, null
  br i1 %.not.i.i, label %5, label %rb_vm_lock_enter.exit

5:                                                ; preds = %2
  call void @rb_vm_lock_enter_body(ptr noundef nonnull %3) #19
  br label %rb_vm_lock_enter.exit

rb_vm_lock_enter.exit:                            ; preds = %2, %5
  %6 = load i32, ptr @ruby_global_symbols, align 8
  %7 = freeze i32 %6
  %8 = add i32 %0, -1
  %or.cond.not = icmp ult i32 %8, %7
  br i1 %or.cond.not, label %9, label %33

9:                                                ; preds = %rb_vm_lock_enter.exit
  %10 = lshr i32 %0, 9
  %11 = zext nneg i32 %10 to i64
  %12 = load i64, ptr getelementptr inbounds nuw (i8, ptr @ruby_global_symbols, i64 16), align 8, !tbaa !16
  %13 = inttoptr i64 %12 to ptr
  %14 = load i64, ptr %13, align 8, !tbaa !26
  %15 = and i64 %14, 8192
  %.not.i = icmp eq i64 %15, 0
  br i1 %.not.i, label %19, label %16

16:                                               ; preds = %9
  %17 = lshr i64 %14, 15
  %18 = and i64 %17, 127
  br label %rb_array_len.exit

19:                                               ; preds = %9
  %20 = getelementptr inbounds nuw i8, ptr %13, i64 16
  %21 = load i64, ptr %20, align 8, !tbaa !17
  br label %rb_array_len.exit

rb_array_len.exit:                                ; preds = %16, %19
  %.0.i = phi i64 [ %18, %16 ], [ %21, %19 ]
  %22 = icmp ugt i64 %.0.i, %11
  br i1 %22, label %23, label %33

23:                                               ; preds = %rb_array_len.exit
  %24 = call i64 @rb_ary_entry(i64 noundef %12, i64 noundef %11) #21
  %25 = icmp eq i64 %24, 4
  br i1 %25, label %33, label %26

26:                                               ; preds = %23
  %27 = shl i32 %0, 1
  %28 = and i32 %27, 1022
  %29 = or disjoint i32 %28, %1
  %30 = zext nneg i32 %29 to i64
  %31 = call i64 @rb_ary_entry(i64 noundef %24, i64 noundef %30) #21
  %32 = icmp eq i64 %31, 4
  %spec.store.select = select i1 %32, i64 0, i64 %31
  br label %33

33:                                               ; preds = %rb_array_len.exit, %23, %26, %rb_vm_lock_enter.exit
  %.0 = phi i64 [ 0, %rb_vm_lock_enter.exit ], [ 0, %23 ], [ %spec.store.select, %26 ], [ 0, %rb_array_len.exit ]
  %34 = load ptr, ptr @ruby_single_main_ractor, align 8, !tbaa !24
  %.not.i.i18 = icmp eq ptr %34, null
  br i1 %.not.i.i18, label %35, label %rb_vm_lock_leave.exit

35:                                               ; preds = %33
  call void @rb_vm_lock_leave_body(ptr noundef nonnull %3) #19
  br label %rb_vm_lock_leave.exit

rb_vm_lock_leave.exit:                            ; preds = %33, %35
  call void @llvm.lifetime.end.p0(i64 4, ptr nonnull %3) #19
  ret i64 %.0
}